target datalayout = "e-m:e-p270:32:32-p271:32:32-p272:64:64-i64:64-i128:128-f80:128-n8:16:32:64-S128"
target triple = "x86_64-pc-linux-gnu"

%struct.slurm_step_id_msg = type { i64, i32, i32, i32 }
%struct.step_location = type { ptr, ptr, i16, %struct.slurm_step_id_msg }
%struct.hostent = type { ptr, ptr, i32, i32, ptr }

@stderr = external global ptr, align 8
@.str.11 = private unnamed_addr constant [2 x i8] c"\0A\00", align 1
@.str.35 = private unnamed_addr constant [29 x i8] c"No steps found on this node\0A\00", align 1
@.str.40 = private unnamed_addr constant [17 x i8] c"JobId=%s:\0AHost:\0A\00", align 1
@.str.41 = private unnamed_addr constant [9 x i8] c"%-15s %s\00", align 1
@.str.42 = private unnamed_addr constant [4 x i8] c" %s\00", align 1

; Function Attrs: nounwind uwtable
define dso_local void @scontrol_gethost(ptr noundef %0, ptr noundef %1) #0 {
  %3 = alloca ptr, align 8
  %4 = alloca ptr, align 8
  %5 = alloca ptr, align 8
  %6 = alloca ptr, align 8
  %7 = alloca ptr, align 8
  %8 = alloca i32, align 4
  %9 = alloca i32, align 4
  %10 = alloca [45 x i8], align 16
  %11 = alloca [46 x i8], align 16
  %12 = alloca ptr, align 8
  %13 = alloca ptr, align 8
  %14 = alloca i32, align 4
  %15 = alloca i32, align 4
  store ptr %0, ptr %3, align 8
  store ptr %1, ptr %4, align 8
  call void @llvm.lifetime.start.p0(i64 8, ptr %5) #9
  store ptr null, ptr %5, align 8
  call void @llvm.lifetime.start.p0(i64 8, ptr %6) #9
  store ptr null, ptr %6, align 8
  call void @llvm.lifetime.start.p0(i64 8, ptr %7) #9
  call void @llvm.lifetime.start.p0(i64 4, ptr %8) #9
  %16 = load ptr, ptr %3, align 8
  %17 = call ptr @stepd_available(ptr noundef null, ptr noundef %16)
  store ptr %17, ptr %5, align 8
  %18 = icmp ne ptr %17, null
  br i1 %18, label %22, label %19

19:                                               ; preds = %2
  %20 = load ptr, ptr @stderr, align 8
  %21 = call i32 (ptr, ptr, ...) @fprintf(ptr noundef %20, ptr noundef @.str.35) #9
  store i32 1, ptr %9, align 4
  br label %128

22:                                               ; preds = %2
  %23 = load ptr, ptr %5, align 8
  %24 = call ptr @list_iterator_create(ptr noundef %23)
  store ptr %24, ptr %6, align 8
  br label %25

25:                                               ; preds = %117, %115, %22
  %26 = load ptr, ptr %6, align 8
  %27 = call ptr @list_next(ptr noundef %26)
  store ptr %27, ptr %7, align 8
  %28 = icmp ne ptr %27, null
  br i1 %28, label %29, label %118

29:                                               ; preds = %25
  call void @llvm.lifetime.start.p0(i64 45, ptr %10) #9
  call void @llvm.lifetime.start.p0(i64 46, ptr %11) #9
  call void @llvm.lifetime.start.p0(i64 8, ptr %12) #9
  store ptr null, ptr %12, align 8
  call void @llvm.lifetime.start.p0(i64 8, ptr %13) #9
  call void @llvm.lifetime.start.p0(i64 4, ptr %14) #9
  call void @llvm.lifetime.start.p0(i64 4, ptr %15) #9
  %30 = load ptr, ptr %3, align 8
  %31 = load ptr, ptr %7, align 8
  %32 = getelementptr inbounds nuw %struct.step_location, ptr %31, i32 0, i32 3
  %33 = load ptr, ptr %7, align 8
  %34 = getelementptr inbounds nuw %struct.step_location, ptr %33, i32 0, i32 2
  %35 = call i32 @stepd_connect(ptr noundef null, ptr noundef %30, ptr noundef %32, ptr noundef %34)
  store i32 %35, ptr %8, align 4
  %36 = load i32, ptr %8, align 4
  %37 = icmp slt i32 %36, 0
  br i1 %37, label %38, label %39

38:                                               ; preds = %29
  store i32 2, ptr %9, align 4
  br label %115, !llvm.loop !21

39:                                               ; preds = %29
  %40 = load i32, ptr %8, align 4
  %41 = load ptr, ptr %7, align 8
  %42 = getelementptr inbounds nuw %struct.step_location, ptr %41, i32 0, i32 2
  %43 = load i16, ptr %42, align 8
  %44 = load ptr, ptr %4, align 8
  %45 = call ptr @stepd_gethostbyname(i32 noundef %40, i16 noundef zeroext %43, i32 noundef 7, ptr noundef %44)
  store ptr %45, ptr %12, align 8
  %46 = load ptr, ptr %7, align 8
  %47 = getelementptr inbounds nuw %struct.step_location, ptr %46, i32 0, i32 3
  %48 = getelementptr inbounds [45 x i8], ptr %10, i64 0, i64 0
  %49 = call ptr @log_build_step_id_str(ptr noundef %47, ptr noundef %48, i32 noundef 45, i16 noundef zeroext 4)
  %50 = getelementptr inbounds [45 x i8], ptr %10, i64 0, i64 0
  %51 = call i32 (ptr, ...) @printf(ptr noundef @.str.40, ptr noundef %50)
  store i32 0, ptr %14, align 4
  br label %52

52:                                               ; preds = %107, %39
  %53 = load ptr, ptr %12, align 8
  %54 = icmp ne ptr %53, null
  br i1 %54, label %55, label %64

55:                                               ; preds = %52
  %56 = load ptr, ptr %12, align 8
  %57 = getelementptr inbounds nuw %struct.hostent, ptr %56, i32 0, i32 4
  %58 = load ptr, ptr %57, align 8
  %59 = load i32, ptr %14, align 4
  %60 = sext i32 %59 to i64
  %61 = getelementptr inbounds ptr, ptr %58, i64 %60
  %62 = load ptr, ptr %61, align 8
  %63 = icmp ne ptr %62, null
  br label %64

64:                                               ; preds = %55, %52
  %65 = phi i1 [ false, %52 ], [ %63, %55 ]
  br i1 %65, label %66, label %110

66:                                               ; preds = %64
  %67 = load ptr, ptr %12, align 8
  %68 = getelementptr inbounds nuw %struct.hostent, ptr %67, i32 0, i32 2
  %69 = load i32, ptr %68, align 8
  %70 = load ptr, ptr %12, align 8
  %71 = getelementptr inbounds nuw %struct.hostent, ptr %70, i32 0, i32 4
  %72 = load ptr, ptr %71, align 8
  %73 = load i32, ptr %14, align 4
  %74 = sext i32 %73 to i64
  %75 = getelementptr inbounds ptr, ptr %72, i64 %74
  %76 = load ptr, ptr %75, align 8
  %77 = getelementptr inbounds [46 x i8], ptr %11, i64 0, i64 0
  %78 = call ptr @inet_ntop(i32 noundef %69, ptr noundef %76, ptr noundef %77, i32 noundef 46) #9
  store ptr %78, ptr %13, align 8
  %79 = load ptr, ptr %13, align 8
  %80 = load ptr, ptr %12, align 8
  %81 = getelementptr inbounds nuw %struct.hostent, ptr %80, i32 0, i32 0
  %82 = load ptr, ptr %81, align 8
  %83 = call i32 (ptr, ...) @printf(ptr noundef @.str.41, ptr noundef %79, ptr noundef %82)
  store i32 0, ptr %15, align 4
  br label %84

84:                                               ; preds = %102, %66
  %85 = load ptr, ptr %12, align 8
  %86 = getelementptr inbounds nuw %struct.hostent, ptr %85, i32 0, i32 1
  %87 = load ptr, ptr %86, align 8
  %88 = load i32, ptr %15, align 4
  %89 = sext i32 %88 to i64
  %90 = getelementptr inbounds ptr, ptr %87, i64 %89
  %91 = load ptr, ptr %90, align 8
  %92 = icmp ne ptr %91, null
  br i1 %92, label %93, label %105

93:                                               ; preds = %84
  %94 = load ptr, ptr %12, align 8
  %95 = getelementptr inbounds nuw %struct.hostent, ptr %94, i32 0, i32 1
  %96 = load ptr, ptr %95, align 8
  %97 = load i32, ptr %14, align 4
  %98 = sext i32 %97 to i64
  %99 = getelementptr inbounds ptr, ptr %96, i64 %98
  %100 = load ptr, ptr %99, align 8
  %101 = call i32 (ptr, ...) @printf(ptr noundef @.str.42, ptr noundef %100)
  br label %102

102:                                              ; preds = %93
  %103 = load i32, ptr %15, align 4
  %104 = add nsw i32 %103, 1
  store i32 %104, ptr %15, align 4
  br label %84, !llvm.loop !22

105:                                              ; preds = %84
  %106 = call i32 (ptr, ...) @printf(ptr noundef @.str.11)
  br label %107

107:                                              ; preds = %105
  %108 = load i32, ptr %14, align 4
  %109 = add nsw i32 %108, 1
  store i32 %109, ptr %14, align 4
  br label %52, !llvm.loop !23

110:                                              ; preds = %64
  %111 = load ptr, ptr %12, align 8
  call void @xfree_struct_hostent(ptr noundef %111)
  %112 = load i32, ptr %8, align 4
  %113 = call i32 @close(i32 noundef %112)
  %114 = call i32 (ptr, ...) @printf(ptr noundef @.str.11)
  store i32 0, ptr %9, align 4
  br label %115

115:                                              ; preds = %110, %38
  call void @llvm.lifetime.end.p0(i64 4, ptr %15) #9
  call void @llvm.lifetime.end.p0(i64 4, ptr %14) #9
  call void @llvm.lifetime.end.p0(i64 8, ptr %13) #9
  call void @llvm.lifetime.end.p0(i64 8, ptr %12) #9
  call void @llvm.lifetime.end.p0(i64 46, ptr %11) #9
  call void @llvm.lifetime.end.p0(i64 45, ptr %10) #9
  %116 = load i32, ptr %9, align 4
  switch i32 %116, label %131 [
    i32 0, label %117
    i32 2, label %25
  ]

117:                                              ; preds = %115
  br label %25, !llvm.loop !21

118:                                              ; preds = %25
  %119 = load ptr, ptr %6, align 8
  call void @list_iterator_destroy(ptr noundef %119)
  br label %120

120:                                              ; preds = %118
  %121 = load ptr, ptr %5, align 8
  %122 = icmp ne ptr %121, null
  br i1 %122, label %123, label %125

123:                                              ; preds = %120
  %124 = load ptr, ptr %5, align 8
  call void @list_destroy(ptr noundef %124)
  br label %125

125:                                              ; preds = %123, %120
  store ptr null, ptr %5, align 8
  br label %126

126:                                              ; preds = %125
  br label %127

127:                                              ; preds = %126
  store i32 0, ptr %9, align 4
  br label %128

128:                                              ; preds = %127, %19
  call void @llvm.lifetime.end.p0(i64 4, ptr %8) #9
  call void @llvm.lifetime.end.p0(i64 8, ptr %7) #9
  call void @llvm.lifetime.end.p0(i64 8, ptr %6) #9
  call void @llvm.lifetime.end.p0(i64 8, ptr %5) #9
  %129 = load i32, ptr %9, align 4
  switch i32 %129, label %131 [
    i32 0, label %130
    i32 1, label %130
  ]

130:                                              ; preds = %128, %128
  ret void

131:                                              ; preds = %128, %115
  unreachable
}