; Function Attrs: nounwind uwtable
define dso_local void @scontrol_gethost(ptr noundef %0, ptr noundef %1) local_unnamed_addr #0 {
  %3 = alloca [45 x i8], align 16
  %4 = alloca [46 x i8], align 16
  %5 = tail call ptr @stepd_available(ptr noundef null, ptr noundef %0) #16
  %.not = icmp eq ptr %5, null
  br i1 %.not, label %6, label %9

6:                                                ; preds = %2
  %7 = load ptr, ptr @stderr, align 8
  %8 = tail call i64 @fwrite(ptr nonnull @.str.35, i64 28, i64 1, ptr %7) #18
  br label %47

9:                                                ; preds = %2
  %10 = tail call ptr @list_iterator_create(ptr noundef nonnull %5) #16
  %11 = tail call ptr @list_next(ptr noundef %10) #16
  %.not3549 = icmp eq ptr %11, null
  br i1 %.not3549, label %._crit_edge52, label %.lr.ph51

.lr.ph51:                                         ; preds = %9, %45
  %12 = phi ptr [ %46, %45 ], [ %11, %9 ]
  call void @llvm.lifetime.start.p0(i64 45, ptr nonnull %3) #16
  call void @llvm.lifetime.start.p0(i64 46, ptr nonnull %4) #16
  %13 = getelementptr inbounds nuw i8, ptr %12, i64 24
  %14 = getelementptr inbounds nuw i8, ptr %12, i64 16
  %15 = call i32 @stepd_connect(ptr noundef null, ptr noundef %0, ptr noundef nonnull %13, ptr noundef nonnull %14) #16
  %16 = icmp slt i32 %15, 0
  br i1 %16, label %45, label %17, !llvm.loop !26

17:                                               ; preds = %.lr.ph51
  %18 = load i16, ptr %14, align 8
  %19 = call ptr @stepd_gethostbyname(i32 noundef %15, i16 noundef zeroext %18, i32 noundef 7, ptr noundef %1) #16
  %20 = call ptr @log_build_step_id_str(ptr noundef nonnull %13, ptr noundef nonnull %3, i32 noundef 45, i16 noundef zeroext 4) #16
  %21 = call i32 (ptr, ...) @printf(ptr noundef nonnull dereferenceable(1) @.str.40, ptr noundef nonnull %3)
  %22 = getelementptr inbounds nuw i8, ptr %19, i64 24
  %.not36 = icmp eq ptr %19, null
  br i1 %.not36, label %.critedge, label %.lr.ph44

.lr.ph44:                                         ; preds = %17
  %23 = getelementptr inbounds nuw i8, ptr %19, i64 16
  %24 = getelementptr inbounds nuw i8, ptr %19, i64 8
  %25 = load ptr, ptr %22, align 8
  %26 = load ptr, ptr %25, align 8
  %.not3746 = icmp eq ptr %26, null
  br i1 %.not3746, label %.critedge, label %.lr.ph48

.lr.ph48:                                         ; preds = %.lr.ph44, %._crit_edge
  %indvars.iv54 = phi i64 [ %indvars.iv.next55, %._crit_edge ], [ 0, %.lr.ph44 ]
  %27 = phi ptr [ %43, %._crit_edge ], [ %26, %.lr.ph44 ]
  %28 = load i32, ptr %23, align 8
  %29 = call ptr @inet_ntop(i32 noundef %28, ptr noundef nonnull %27, ptr noundef nonnull %4, i32 noundef 46) #16
  %30 = load ptr, ptr %19, align 8
  %31 = call i32 (ptr, ...) @printf(ptr noundef nonnull dereferenceable(1) @.str.41, ptr noundef %29, ptr noundef %30)
  %32 = load ptr, ptr %24, align 8
  %33 = load ptr, ptr %32, align 8
  %.not3840 = icmp eq ptr %33, null
  br i1 %.not3840, label %._crit_edge, label %.lr.ph

.lr.ph:                                           ; preds = %.lr.ph48, %.lr.ph
  %indvars.iv = phi i64 [ %indvars.iv.next, %.lr.ph ], [ 0, %.lr.ph48 ]
  %34 = phi ptr [ %38, %.lr.ph ], [ %32, %.lr.ph48 ]
  %35 = getelementptr inbounds nuw ptr, ptr %34, i64 %indvars.iv54
  %36 = load ptr, ptr %35, align 8
  %37 = call i32 (ptr, ...) @printf(ptr noundef nonnull dereferenceable(1) @.str.42, ptr noundef %36)
  %indvars.iv.next = add nuw nsw i64 %indvars.iv, 1
  %38 = load ptr, ptr %24, align 8
  %39 = getelementptr inbounds nuw ptr, ptr %38, i64 %indvars.iv.next
  %40 = load ptr, ptr %39, align 8
  %.not38 = icmp eq ptr %40, null
  br i1 %.not38, label %._crit_edge, label %.lr.ph, !llvm.loop !27

._crit_edge:                                      ; preds = %.lr.ph, %.lr.ph48
  %putchar39 = call i32 @putchar(i32 10)
  %indvars.iv.next55 = add nuw nsw i64 %indvars.iv54, 1
  %41 = load ptr, ptr %22, align 8
  %42 = getelementptr inbounds nuw ptr, ptr %41, i64 %indvars.iv.next55
  %43 = load ptr, ptr %42, align 8
  %.not37 = icmp eq ptr %43, null
  br i1 %.not37, label %.critedge, label %.lr.ph48

.critedge:                                        ; preds = %._crit_edge, %.lr.ph44, %17
  call void @xfree_struct_hostent(ptr noundef %19) #16
  %44 = call i32 @close(i32 noundef %15) #16
  %putchar = call i32 @putchar(i32 10)
  br label %45

45:                                               ; preds = %.lr.ph51, %.critedge
  call void @llvm.lifetime.end.p0(i64 46, ptr nonnull %4) #16
  call void @llvm.lifetime.end.p0(i64 45, ptr nonnull %3) #16
  %46 = call ptr @list_next(ptr noundef %10) #16
  %.not35 = icmp eq ptr %46, null
  br i1 %.not35, label %._crit_edge52, label %.lr.ph51

._crit_edge52:                                    ; preds = %45, %9
  call void @list_iterator_destroy(ptr noundef %10) #16
  call void @list_destroy(ptr noundef nonnull %5) #16
  br label %47

47:                                               ; preds = %._crit_edge52, %6
  ret void
}